target datalayout = "e-m:e-p270:32:32-p271:32:32-p272:64:64-i64:64-i128:128-f80:128-n8:16:32:64-S128"
target triple = "x86_64-pc-linux-gnu"

%struct.Cbs3_Par_t_ = type { i32, i32, i32, i32, i32, i32, i32, i32 }
%struct.Cbs3_Man_t_ = type { %struct.Cbs3_Par_t_, ptr, %struct.Cbs3_Que_t_, %struct.Cbs3_Que_t_, %struct.Cbs3_Que_t_, ptr, ptr, i32, i32, i32, %struct.Vec_Int_t_, %struct.Vec_Int_t_, %struct.Vec_Int_t_, %struct.Vec_Wec_t_, %struct.Vec_Str_t_, %struct.Vec_Str_t_, %struct.Vec_Int_t_, %struct.Vec_Int_t_, %struct.Vec_Int_t_, %struct.Vec_Int_t_, i32, i32, i32, i32, i32, i32, i32, i64, i64, i64, i64, i64, i64, [3 x i32], [2 x i32], i32, i32 }
%struct.Cbs3_Que_t_ = type { i32, i32, i32, ptr }
%struct.Vec_Wec_t_ = type { i32, i32, ptr }
%struct.Vec_Str_t_ = type { i32, i32, ptr }
%struct.Vec_Int_t_ = type { i32, i32, ptr }

; Function Attrs: inlinehint nounwind uwtable
define internal signext i8 @Vec_StrEntry(ptr noundef %0, i32 noundef %1) #5 {
  %3 = alloca ptr, align 8
  %4 = alloca i32, align 4
  store ptr %0, ptr %3, align 8, !tbaa !50
  store i32 %1, ptr %4, align 4, !tbaa !16
  %5 = load ptr, ptr %3, align 8, !tbaa !50
  %6 = getelementptr inbounds nuw %struct.Vec_Str_t_, ptr %5, i32 0, i32 2
  %7 = load ptr, ptr %6, align 8, !tbaa !54
  %8 = load i32, ptr %4, align 4, !tbaa !16
  %9 = sext i32 %8 to i64
  %10 = getelementptr inbounds i8, ptr %7, i64 %9
  %11 = load i8, ptr %10, align 1, !tbaa !52
  ret i8 %11
}

; Function Attrs: inlinehint nounwind uwtable
define internal i32 @Cbs3_VarValue(ptr noundef %0, i32 noundef %1) #5 {
  %3 = alloca ptr, align 8
  %4 = alloca i32, align 4
  store ptr %0, ptr %3, align 8, !tbaa !14
  store i32 %1, ptr %4, align 4, !tbaa !16
  %5 = load ptr, ptr %3, align 8, !tbaa !14
  %6 = getelementptr inbounds nuw %struct.Cbs3_Man_t_, ptr %5, i32 0, i32 14
  %7 = load i32, ptr %4, align 4, !tbaa !16
  %8 = call signext i8 @Vec_StrEntry(ptr noundef %6, i32 noundef %7)
  %9 = sext i8 %8 to i32
  ret i32 %9
}

; Function Attrs: inlinehint nounwind uwtable
define internal ptr @Vec_IntEntryP(ptr noundef %0, i32 noundef %1) #5 {
  %3 = alloca ptr, align 8
  %4 = alloca i32, align 4
  store ptr %0, ptr %3, align 8, !tbaa !42
  store i32 %1, ptr %4, align 4, !tbaa !16
  %5 = load ptr, ptr %3, align 8, !tbaa !42
  %6 = getelementptr inbounds nuw %struct.Vec_Int_t_, ptr %5, i32 0, i32 2
  %7 = load ptr, ptr %6, align 8, !tbaa !45
  %8 = load i32, ptr %4, align 4, !tbaa !16
  %9 = sext i32 %8 to i64
  %10 = getelementptr inbounds i32, ptr %7, i64 %9
  ret ptr %10
}

; Function Attrs: inlinehint nounwind uwtable
define internal i32 @Abc_Var2Lit(i32 noundef %0, i32 noundef %1) #5 {
  %3 = alloca i32, align 4
  %4 = alloca i32, align 4
  store i32 %0, ptr %3, align 4, !tbaa !16
  store i32 %1, ptr %4, align 4, !tbaa !16
  %5 = load i32, ptr %3, align 4, !tbaa !16
  %6 = load i32, ptr %3, align 4, !tbaa !16
  %7 = add nsw i32 %5, %6
  %8 = load i32, ptr %4, align 4, !tbaa !16
  %9 = add nsw i32 %7, %8
  ret i32 %9
}

; Function Attrs: inlinehint nounwind uwtable
define internal i32 @Abc_Lit2Var(i32 noundef %0) #5 {
  %2 = alloca i32, align 4
  store i32 %0, ptr %2, align 4, !tbaa !16
  %3 = load i32, ptr %2, align 4, !tbaa !16
  %4 = ashr i32 %3, 1
  ret i32 %4
}

; Function Attrs: inlinehint nounwind uwtable
define internal i32 @Cbs3_VarIsJust(ptr noundef %0, i32 noundef %1) #5 {
  %3 = alloca ptr, align 8
  %4 = alloca i32, align 4
  %5 = alloca ptr, align 8
  store ptr %0, ptr %3, align 8, !tbaa !14
  store i32 %1, ptr %4, align 4, !tbaa !16
  call void @llvm.lifetime.start.p0(i64 8, ptr %5) #12
  %6 = load ptr, ptr %3, align 8, !tbaa !14
  %7 = getelementptr inbounds nuw %struct.Cbs3_Man_t_, ptr %6, i32 0, i32 12
  %8 = load i32, ptr %4, align 4, !tbaa !16
  %9 = call i32 @Abc_Var2Lit(i32 noundef %8, i32 noundef 0)
  %10 = call ptr @Vec_IntEntryP(ptr noundef %7, i32 noundef %9)
  store ptr %10, ptr %5, align 8, !tbaa !76
  %11 = load ptr, ptr %5, align 8, !tbaa !76
  %12 = getelementptr inbounds i32, ptr %11, i64 0
  %13 = load i32, ptr %12, align 4, !tbaa !16
  %14 = icmp sgt i32 %13, 0
  br i1 %14, label %15, label %31

15:                                               ; preds = %2
  %16 = load ptr, ptr %3, align 8, !tbaa !14
  %17 = load ptr, ptr %5, align 8, !tbaa !76
  %18 = getelementptr inbounds i32, ptr %17, i64 0
  %19 = load i32, ptr %18, align 4, !tbaa !16
  %20 = call i32 @Abc_Lit2Var(i32 noundef %19)
  %21 = call i32 @Cbs3_VarValue(ptr noundef %16, i32 noundef %20)
  %22 = icmp sge i32 %21, 2
  br i1 %22, label %23, label %31

23:                                               ; preds = %15
  %24 = load ptr, ptr %3, align 8, !tbaa !14
  %25 = load ptr, ptr %5, align 8, !tbaa !76
  %26 = getelementptr inbounds i32, ptr %25, i64 1
  %27 = load i32, ptr %26, align 4, !tbaa !16
  %28 = call i32 @Abc_Lit2Var(i32 noundef %27)
  %29 = call i32 @Cbs3_VarValue(ptr noundef %24, i32 noundef %28)
  %30 = icmp sge i32 %29, 2
  br label %31

31:                                               ; preds = %23, %15, %2
  %32 = phi i1 [ false, %15 ], [ false, %2 ], [ %30, %23 ]
  %33 = zext i1 %32 to i32
  call void @llvm.lifetime.end.p0(i64 8, ptr %5) #12
  ret i32 %33
}

; Function Attrs: inlinehint nounwind uwtable
define internal void @Cbs3_QueGrow(ptr noundef %0, i32 noundef %1) #5 {
  %3 = alloca ptr, align 8
  %4 = alloca i32, align 4
  store ptr %0, ptr %3, align 8, !tbaa !70
  store i32 %1, ptr %4, align 4, !tbaa !16
  %5 = load ptr, ptr %3, align 8, !tbaa !70
  %6 = getelementptr inbounds nuw %struct.Cbs3_Que_t_, ptr %5, i32 0, i32 1
  %7 = load i32, ptr %6, align 4, !tbaa !72
  %8 = load i32, ptr %4, align 4, !tbaa !16
  %9 = add nsw i32 %7, %8
  %10 = load ptr, ptr %3, align 8, !tbaa !70
  %11 = getelementptr inbounds nuw %struct.Cbs3_Que_t_, ptr %10, i32 0, i32 2
  %12 = load i32, ptr %11, align 8, !tbaa !73
  %13 = icmp sgt i32 %9, %12
  br i1 %13, label %14, label %44

14:                                               ; preds = %2
  %15 = load ptr, ptr %3, align 8, !tbaa !70
  %16 = getelementptr inbounds nuw %struct.Cbs3_Que_t_, ptr %15, i32 0, i32 2
  %17 = load i32, ptr %16, align 8, !tbaa !73
  %18 = mul nsw i32 %17, 2
  store i32 %18, ptr %16, align 8, !tbaa !73
  %19 = load ptr, ptr %3, align 8, !tbaa !70
  %20 = getelementptr inbounds nuw %struct.Cbs3_Que_t_, ptr %19, i32 0, i32 3
  %21 = load ptr, ptr %20, align 8, !tbaa !74
  %22 = icmp ne ptr %21, null
  br i1 %22, label %23, label %33

23:                                               ; preds = %14
  %24 = load ptr, ptr %3, align 8, !tbaa !70
  %25 = getelementptr inbounds nuw %struct.Cbs3_Que_t_, ptr %24, i32 0, i32 3
  %26 = load ptr, ptr %25, align 8, !tbaa !74
  %27 = load ptr, ptr %3, align 8, !tbaa !70
  %28 = getelementptr inbounds nuw %struct.Cbs3_Que_t_, ptr %27, i32 0, i32 2
  %29 = load i32, ptr %28, align 8, !tbaa !73
  %30 = sext i32 %29 to i64
  %31 = mul i64 4, %30
  %32 = call ptr @realloc(ptr noundef %26, i64 noundef %31) #15
  br label %40

33:                                               ; preds = %14
  %34 = load ptr, ptr %3, align 8, !tbaa !70
  %35 = getelementptr inbounds nuw %struct.Cbs3_Que_t_, ptr %34, i32 0, i32 2
  %36 = load i32, ptr %35, align 8, !tbaa !73
  %37 = sext i32 %36 to i64
  %38 = mul i64 4, %37
  %39 = call noalias ptr @malloc(i64 noundef %38) #14
  br label %40

40:                                               ; preds = %33, %23
  %41 = phi ptr [ %32, %23 ], [ %39, %33 ]
  %42 = load ptr, ptr %3, align 8, !tbaa !70
  %43 = getelementptr inbounds nuw %struct.Cbs3_Que_t_, ptr %42, i32 0, i32 3
  store ptr %41, ptr %43, align 8, !tbaa !74
  br label %44

44:                                               ; preds = %40, %2
  ret void
}

; Function Attrs: inlinehint nounwind uwtable
define internal i32 @Cbs3_QueSize(ptr noundef %0) #5 {
  %2 = alloca ptr, align 8
  store ptr %0, ptr %2, align 8, !tbaa !70
  %3 = load ptr, ptr %2, align 8, !tbaa !70
  %4 = getelementptr inbounds nuw %struct.Cbs3_Que_t_, ptr %3, i32 0, i32 1
  %5 = load i32, ptr %4, align 4, !tbaa !72
  %6 = load ptr, ptr %2, align 8, !tbaa !70
  %7 = getelementptr inbounds nuw %struct.Cbs3_Que_t_, ptr %6, i32 0, i32 0
  %8 = load i32, ptr %7, align 8, !tbaa !75
  %9 = sub nsw i32 %5, %8
  ret i32 %9
}

; Function Attrs: nounwind uwtable
define void @Cbs3_ManUpdateJFrontier(ptr noundef %0) #0 {
  %2 = alloca ptr, align 8
  %3 = alloca i32, align 4
  %4 = alloca i32, align 4
  %5 = alloca i32, align 4
  %6 = alloca i32, align 4
  store ptr %0, ptr %2, align 8, !tbaa !14
  call void @llvm.lifetime.start.p0(i64 4, ptr %3) #12
  call void @llvm.lifetime.start.p0(i64 4, ptr %4) #12
  call void @llvm.lifetime.start.p0(i64 4, ptr %5) #12
  call void @llvm.lifetime.start.p0(i64 4, ptr %6) #12
  %7 = load ptr, ptr %2, align 8, !tbaa !14
  %8 = getelementptr inbounds nuw %struct.Cbs3_Man_t_, ptr %7, i32 0, i32 3
  %9 = getelementptr inbounds nuw %struct.Cbs3_Que_t_, ptr %8, i32 0, i32 1
  %10 = load i32, ptr %9, align 4, !tbaa !64
  store i32 %10, ptr %6, align 4, !tbaa !16
  %11 = load ptr, ptr %2, align 8, !tbaa !14
  %12 = getelementptr inbounds nuw %struct.Cbs3_Man_t_, ptr %11, i32 0, i32 3
  %13 = load ptr, ptr %2, align 8, !tbaa !14
  %14 = getelementptr inbounds nuw %struct.Cbs3_Man_t_, ptr %13, i32 0, i32 3
  %15 = call i32 @Cbs3_QueSize(ptr noundef %14)
  %16 = load ptr, ptr %2, align 8, !tbaa !14
  %17 = getelementptr inbounds nuw %struct.Cbs3_Man_t_, ptr %16, i32 0, i32 2
  %18 = call i32 @Cbs3_QueSize(ptr noundef %17)
  %19 = add nsw i32 %15, %18
  call void @Cbs3_QueGrow(ptr noundef %12, i32 noundef %19)
  %20 = load ptr, ptr %2, align 8, !tbaa !14
  %21 = getelementptr inbounds nuw %struct.Cbs3_Man_t_, ptr %20, i32 0, i32 3
  %22 = getelementptr inbounds nuw %struct.Cbs3_Que_t_, ptr %21, i32 0, i32 0
  %23 = load i32, ptr %22, align 8, !tbaa !65
  store i32 %23, ptr %5, align 4, !tbaa !16
  br label %24

24:                                               ; preds = %59, %1
  %25 = load i32, ptr %5, align 4, !tbaa !16
  %26 = load ptr, ptr %2, align 8, !tbaa !14
  %27 = getelementptr inbounds nuw %struct.Cbs3_Man_t_, ptr %26, i32 0, i32 3
  %28 = getelementptr inbounds nuw %struct.Cbs3_Que_t_, ptr %27, i32 0, i32 1
  %29 = load i32, ptr %28, align 4, !tbaa !64
  %30 = icmp slt i32 %25, %29
  br i1 %30, label %31, label %41

31:                                               ; preds = %24
  %32 = load ptr, ptr %2, align 8, !tbaa !14
  %33 = getelementptr inbounds nuw %struct.Cbs3_Man_t_, ptr %32, i32 0, i32 3
  %34 = getelementptr inbounds nuw %struct.Cbs3_Que_t_, ptr %33, i32 0, i32 3
  %35 = load ptr, ptr %34, align 8, !tbaa !33
  %36 = load i32, ptr %5, align 4, !tbaa !16
  %37 = sext i32 %36 to i64
  %38 = getelementptr inbounds i32, ptr %35, i64 %37
  %39 = load i32, ptr %38, align 4, !tbaa !16
  store i32 %39, ptr %3, align 4, !tbaa !16
  %40 = icmp ne i32 %39, 0
  br label %41

41:                                               ; preds = %31, %24
  %42 = phi i1 [ false, %24 ], [ %40, %31 ]
  br i1 %42, label %43, label %62

43:                                               ; preds = %41
  %44 = load ptr, ptr %2, align 8, !tbaa !14
  %45 = load i32, ptr %3, align 4, !tbaa !16
  %46 = call i32 @Cbs3_VarIsJust(ptr noundef %44, i32 noundef %45)
  %47 = icmp ne i32 %46, 0
  br i1 %47, label %48, label %58

48:                                               ; preds = %43
  %49 = load i32, ptr %3, align 4, !tbaa !16
  %50 = load ptr, ptr %2, align 8, !tbaa !14
  %51 = getelementptr inbounds nuw %struct.Cbs3_Man_t_, ptr %50, i32 0, i32 3
  %52 = getelementptr inbounds nuw %struct.Cbs3_Que_t_, ptr %51, i32 0, i32 3
  %53 = load ptr, ptr %52, align 8, !tbaa !33
  %54 = load i32, ptr %6, align 4, !tbaa !16
  %55 = add nsw i32 %54, 1
  store i32 %55, ptr %6, align 4, !tbaa !16
  %56 = sext i32 %54 to i64
  %57 = getelementptr inbounds i32, ptr %53, i64 %56
  store i32 %49, ptr %57, align 4, !tbaa !16
  br label %58

58:                                               ; preds = %48, %43
  br label %59

59:                                               ; preds = %58
  %60 = load i32, ptr %5, align 4, !tbaa !16
  %61 = add nsw i32 %60, 1
  store i32 %61, ptr %5, align 4, !tbaa !16
  br label %24, !llvm.loop !66

62:                                               ; preds = %41
  %63 = load ptr, ptr %2, align 8, !tbaa !14
  %64 = getelementptr inbounds nuw %struct.Cbs3_Man_t_, ptr %63, i32 0, i32 2
  %65 = getelementptr inbounds nuw %struct.Cbs3_Que_t_, ptr %64, i32 0, i32 0
  %66 = load i32, ptr %65, align 8, !tbaa !67
  store i32 %66, ptr %5, align 4, !tbaa !16
  br label %67

67:                                               ; preds = %104, %62
  %68 = load i32, ptr %5, align 4, !tbaa !16
  %69 = load ptr, ptr %2, align 8, !tbaa !14
  %70 = getelementptr inbounds nuw %struct.Cbs3_Man_t_, ptr %69, i32 0, i32 2
  %71 = getelementptr inbounds nuw %struct.Cbs3_Que_t_, ptr %70, i32 0, i32 1
  %72 = load i32, ptr %71, align 4, !tbaa !68
  %73 = icmp slt i32 %68, %72
  br i1 %73, label %74, label %84

74:                                               ; preds = %67
  %75 = load ptr, ptr %2, align 8, !tbaa !14
  %76 = getelementptr inbounds nuw %struct.Cbs3_Man_t_, ptr %75, i32 0, i32 2
  %77 = getelementptr inbounds nuw %struct.Cbs3_Que_t_, ptr %76, i32 0, i32 3
  %78 = load ptr, ptr %77, align 8, !tbaa !32
  %79 = load i32, ptr %5, align 4, !tbaa !16
  %80 = sext i32 %79 to i64
  %81 = getelementptr inbounds i32, ptr %78, i64 %80
  %82 = load i32, ptr %81, align 4, !tbaa !16
  store i32 %82, ptr %4, align 4, !tbaa !16
  %83 = icmp ne i32 %82, 0
  br label %84

84:                                               ; preds = %74, %67
  %85 = phi i1 [ false, %67 ], [ %83, %74 ]
  br i1 %85, label %86, label %107

86:                                               ; preds = %84
  %87 = load ptr, ptr %2, align 8, !tbaa !14
  %88 = load i32, ptr %4, align 4, !tbaa !16
  %89 = call i32 @Abc_Lit2Var(i32 noundef %88)
  %90 = call i32 @Cbs3_VarIsJust(ptr noundef %87, i32 noundef %89)
  %91 = icmp ne i32 %90, 0
  br i1 %91, label %92, label %103

92:                                               ; preds = %86
  %93 = load i32, ptr %4, align 4, !tbaa !16
  %94 = call i32 @Abc_Lit2Var(i32 noundef %93)
  %95 = load ptr, ptr %2, align 8, !tbaa !14
  %96 = getelementptr inbounds nuw %struct.Cbs3_Man_t_, ptr %95, i32 0, i32 3
  %97 = getelementptr inbounds nuw %struct.Cbs3_Que_t_, ptr %96, i32 0, i32 3
  %98 = load ptr, ptr %97, align 8, !tbaa !33
  %99 = load i32, ptr %6, align 4, !tbaa !16
  %100 = add nsw i32 %99, 1
  store i32 %100, ptr %6, align 4, !tbaa !16
  %101 = sext i32 %99 to i64
  %102 = getelementptr inbounds i32, ptr %98, i64 %101
  store i32 %94, ptr %102, align 4, !tbaa !16
  br label %103

103:                                              ; preds = %92, %86
  br label %104

104:                                              ; preds = %103
  %105 = load i32, ptr %5, align 4, !tbaa !16
  %106 = add nsw i32 %105, 1
  store i32 %106, ptr %5, align 4, !tbaa !16
  br label %67, !llvm.loop !69

107:                                              ; preds = %84
  %108 = load ptr, ptr %2, align 8, !tbaa !14
  %109 = getelementptr inbounds nuw %struct.Cbs3_Man_t_, ptr %108, i32 0, i32 3
  %110 = getelementptr inbounds nuw %struct.Cbs3_Que_t_, ptr %109, i32 0, i32 1
  %111 = load i32, ptr %110, align 4, !tbaa !64
  %112 = load ptr, ptr %2, align 8, !tbaa !14
  %113 = getelementptr inbounds nuw %struct.Cbs3_Man_t_, ptr %112, i32 0, i32 3
  %114 = getelementptr inbounds nuw %struct.Cbs3_Que_t_, ptr %113, i32 0, i32 0
  store i32 %111, ptr %114, align 8, !tbaa !65
  %115 = load i32, ptr %6, align 4, !tbaa !16
  %116 = load ptr, ptr %2, align 8, !tbaa !14
  %117 = getelementptr inbounds nuw %struct.Cbs3_Man_t_, ptr %116, i32 0, i32 3
  %118 = getelementptr inbounds nuw %struct.Cbs3_Que_t_, ptr %117, i32 0, i32 1
  store i32 %115, ptr %118, align 4, !tbaa !64
  call void @llvm.lifetime.end.p0(i64 4, ptr %6) #12
  call void @llvm.lifetime.end.p0(i64 4, ptr %5) #12
  call void @llvm.lifetime.end.p0(i64 4, ptr %4) #12
  call void @llvm.lifetime.end.p0(i64 4, ptr %3) #12
  ret void
}