; Function Attrs: nounwind uwtable
define void @Cbs3_ManUpdateJFrontier(ptr noundef captures(none) %0) local_unnamed_addr #2 {
  %2 = getelementptr inbounds nuw i8, ptr %0, i64 64
  %3 = getelementptr inbounds nuw i8, ptr %0, i64 68
  %4 = load i32, ptr %3, align 4, !tbaa !51
  %.val = load i32, ptr %2, align 8, !tbaa !52
  %5 = getelementptr inbounds nuw i8, ptr %0, i64 40
  %.val39 = load i32, ptr %5, align 8, !tbaa !52
  %6 = getelementptr i8, ptr %0, i64 44
  %.val40 = load i32, ptr %6, align 4, !tbaa !53
  %factor = shl i32 %4, 1
  %7 = add i32 %.val, %.val39
  %8 = sub i32 %factor, %7
  %9 = add i32 %8, %.val40
  %10 = getelementptr inbounds nuw i8, ptr %0, i64 72
  %11 = load i32, ptr %10, align 8, !tbaa !54
  %12 = icmp sgt i32 %9, %11
  br i1 %12, label %13, label %Cbs3_QueGrow.exit

13:                                               ; preds = %1
  %14 = shl nsw i32 %11, 1
  store i32 %14, ptr %10, align 8, !tbaa !54
  %15 = getelementptr inbounds nuw i8, ptr %0, i64 80
  %16 = load ptr, ptr %15, align 8, !tbaa !55
  %.not.i = icmp eq ptr %16, null
  %17 = sext i32 %14 to i64
  %18 = shl nsw i64 %17, 2
  br i1 %.not.i, label %21, label %19

19:                                               ; preds = %13
  %20 = tail call ptr @realloc(ptr noundef nonnull %16, i64 noundef %18) #24
  %.pre.pre = load i32, ptr %2, align 8, !tbaa !56
  %.pre60.pre = load i32, ptr %3, align 4, !tbaa !51
  br label %23

21:                                               ; preds = %13
  %22 = tail call noalias ptr @malloc(i64 noundef %18) #23
  br label %23

23:                                               ; preds = %21, %19
  %.pre60 = phi i32 [ %.pre60.pre, %19 ], [ %4, %21 ]
  %.pre = phi i32 [ %.pre.pre, %19 ], [ %.val, %21 ]
  %24 = phi ptr [ %20, %19 ], [ %22, %21 ]
  store ptr %24, ptr %15, align 8, !tbaa !55
  br label %Cbs3_QueGrow.exit

Cbs3_QueGrow.exit:                                ; preds = %1, %23
  %25 = phi i32 [ %4, %1 ], [ %.pre60, %23 ]
  %26 = phi i32 [ %.val, %1 ], [ %.pre, %23 ]
  %27 = icmp slt i32 %26, %25
  br i1 %27, label %.lr.ph, label %.critedge

.lr.ph:                                           ; preds = %Cbs3_QueGrow.exit
  %28 = getelementptr inbounds nuw i8, ptr %0, i64 80
  %29 = load ptr, ptr %28, align 8, !tbaa !27
  %30 = getelementptr i8, ptr %0, i64 184
  %31 = getelementptr i8, ptr %0, i64 216
  %32 = sext i32 %26 to i64
  br label %33

33:                                               ; preds = %.lr.ph, %Cbs3_VarIsJust.exit.thread
  %34 = phi i32 [ %25, %.lr.ph ], [ %60, %Cbs3_VarIsJust.exit.thread ]
  %indvars.iv = phi i64 [ %32, %.lr.ph ], [ %indvars.iv.next, %Cbs3_VarIsJust.exit.thread ]
  %.047 = phi i32 [ %4, %.lr.ph ], [ %.1, %Cbs3_VarIsJust.exit.thread ]
  %35 = getelementptr inbounds i32, ptr %29, i64 %indvars.iv
  %36 = load i32, ptr %35, align 4, !tbaa !37
  %.not = icmp eq i32 %36, 0
  br i1 %.not, label %.critedge, label %37

37:                                               ; preds = %33
  %38 = shl nsw i32 %36, 1
  %.val.i = load ptr, ptr %30, align 8, !tbaa !33
  %39 = sext i32 %38 to i64
  %40 = getelementptr inbounds i32, ptr %.val.i, i64 %39
  %41 = load i32, ptr %40, align 4, !tbaa !37
  %42 = icmp sgt i32 %41, 0
  br i1 %42, label %43, label %Cbs3_VarIsJust.exit.thread

43:                                               ; preds = %37
  %44 = lshr i32 %41, 1
  %.val6.i = load ptr, ptr %31, align 8, !tbaa !44
  %45 = zext nneg i32 %44 to i64
  %46 = getelementptr inbounds nuw i8, ptr %.val6.i, i64 %45
  %47 = load i8, ptr %46, align 1, !tbaa !46
  %48 = icmp sgt i8 %47, 1
  br i1 %48, label %Cbs3_VarIsJust.exit, label %Cbs3_VarIsJust.exit.thread

Cbs3_VarIsJust.exit:                              ; preds = %43
  %49 = getelementptr inbounds nuw i8, ptr %40, i64 4
  %50 = load i32, ptr %49, align 4, !tbaa !37
  %51 = ashr i32 %50, 1
  %52 = sext i32 %51 to i64
  %53 = getelementptr inbounds i8, ptr %.val6.i, i64 %52
  %54 = load i8, ptr %53, align 1, !tbaa !46
  %55 = icmp slt i8 %54, 2
  br i1 %55, label %Cbs3_VarIsJust.exit.thread, label %56

56:                                               ; preds = %Cbs3_VarIsJust.exit
  %57 = add nsw i32 %.047, 1
  %58 = sext i32 %.047 to i64
  %59 = getelementptr inbounds i32, ptr %29, i64 %58
  store i32 %36, ptr %59, align 4, !tbaa !37
  %.pre61 = load i32, ptr %3, align 4, !tbaa !51
  br label %Cbs3_VarIsJust.exit.thread

Cbs3_VarIsJust.exit.thread:                       ; preds = %37, %43, %Cbs3_VarIsJust.exit, %56
  %60 = phi i32 [ %.pre61, %56 ], [ %34, %Cbs3_VarIsJust.exit ], [ %34, %43 ], [ %34, %37 ]
  %.1 = phi i32 [ %57, %56 ], [ %.047, %Cbs3_VarIsJust.exit ], [ %.047, %43 ], [ %.047, %37 ]
  %indvars.iv.next = add nsw i64 %indvars.iv, 1
  %61 = sext i32 %60 to i64
  %62 = icmp slt i64 %indvars.iv.next, %61
  br i1 %62, label %33, label %.critedge, !llvm.loop !57

.critedge:                                        ; preds = %33, %Cbs3_VarIsJust.exit.thread, %Cbs3_QueGrow.exit
  %63 = phi i32 [ %25, %Cbs3_QueGrow.exit ], [ %60, %Cbs3_VarIsJust.exit.thread ], [ %34, %33 ]
  %.0.lcssa = phi i32 [ %4, %Cbs3_QueGrow.exit ], [ %.1, %Cbs3_VarIsJust.exit.thread ], [ %.047, %33 ]
  %64 = load i32, ptr %5, align 8, !tbaa !58
  %65 = load i32, ptr %6, align 4, !tbaa !59
  %66 = icmp slt i32 %64, %65
  br i1 %66, label %.lr.ph52, label %.critedge2

.lr.ph52:                                         ; preds = %.critedge
  %67 = getelementptr inbounds nuw i8, ptr %0, i64 56
  %68 = load ptr, ptr %67, align 8, !tbaa !26
  %69 = getelementptr i8, ptr %0, i64 184
  %70 = getelementptr i8, ptr %0, i64 216
  %71 = getelementptr inbounds nuw i8, ptr %0, i64 80
  %72 = sext i32 %64 to i64
  br label %73

73:                                               ; preds = %.lr.ph52, %Cbs3_VarIsJust.exit43.thread
  %74 = phi i32 [ %65, %.lr.ph52 ], [ %102, %Cbs3_VarIsJust.exit43.thread ]
  %indvars.iv57 = phi i64 [ %72, %.lr.ph52 ], [ %indvars.iv.next58, %Cbs3_VarIsJust.exit43.thread ]
  %.251 = phi i32 [ %.0.lcssa, %.lr.ph52 ], [ %.3, %Cbs3_VarIsJust.exit43.thread ]
  %75 = getelementptr inbounds i32, ptr %68, i64 %indvars.iv57
  %76 = load i32, ptr %75, align 4, !tbaa !37
  %.not35 = icmp eq i32 %76, 0
  br i1 %.not35, label %.critedge2.loopexit, label %77

77:                                               ; preds = %73
  %78 = ashr i32 %76, 1
  %79 = and i32 %76, -2
  %.val.i41 = load ptr, ptr %69, align 8, !tbaa !33
  %80 = sext i32 %79 to i64
  %81 = getelementptr inbounds i32, ptr %.val.i41, i64 %80
  %82 = load i32, ptr %81, align 4, !tbaa !37
  %83 = icmp sgt i32 %82, 0
  br i1 %83, label %84, label %Cbs3_VarIsJust.exit43.thread

84:                                               ; preds = %77
  %85 = lshr i32 %82, 1
  %.val6.i42 = load ptr, ptr %70, align 8, !tbaa !44
  %86 = zext nneg i32 %85 to i64
  %87 = getelementptr inbounds nuw i8, ptr %.val6.i42, i64 %86
  %88 = load i8, ptr %87, align 1, !tbaa !46
  %89 = icmp sgt i8 %88, 1
  br i1 %89, label %Cbs3_VarIsJust.exit43, label %Cbs3_VarIsJust.exit43.thread

Cbs3_VarIsJust.exit43:                            ; preds = %84
  %90 = getelementptr inbounds nuw i8, ptr %81, i64 4
  %91 = load i32, ptr %90, align 4, !tbaa !37
  %92 = ashr i32 %91, 1
  %93 = sext i32 %92 to i64
  %94 = getelementptr inbounds i8, ptr %.val6.i42, i64 %93
  %95 = load i8, ptr %94, align 1, !tbaa !46
  %96 = icmp slt i8 %95, 2
  br i1 %96, label %Cbs3_VarIsJust.exit43.thread, label %97

97:                                               ; preds = %Cbs3_VarIsJust.exit43
  %98 = load ptr, ptr %71, align 8, !tbaa !27
  %99 = add nsw i32 %.251, 1
  %100 = sext i32 %.251 to i64
  %101 = getelementptr inbounds i32, ptr %98, i64 %100
  store i32 %78, ptr %101, align 4, !tbaa !37
  %.pre62 = load i32, ptr %6, align 4, !tbaa !59
  br label %Cbs3_VarIsJust.exit43.thread

Cbs3_VarIsJust.exit43.thread:                     ; preds = %77, %84, %Cbs3_VarIsJust.exit43, %97
  %102 = phi i32 [ %.pre62, %97 ], [ %74, %Cbs3_VarIsJust.exit43 ], [ %74, %84 ], [ %74, %77 ]
  %.3 = phi i32 [ %99, %97 ], [ %.251, %Cbs3_VarIsJust.exit43 ], [ %.251, %84 ], [ %.251, %77 ]
  %indvars.iv.next58 = add nsw i64 %indvars.iv57, 1
  %103 = sext i32 %102 to i64
  %104 = icmp slt i64 %indvars.iv.next58, %103
  br i1 %104, label %73, label %.critedge2.loopexit, !llvm.loop !60

.critedge2.loopexit:                              ; preds = %Cbs3_VarIsJust.exit43.thread, %73
  %.2.lcssa.ph = phi i32 [ %.251, %73 ], [ %.3, %Cbs3_VarIsJust.exit43.thread ]
  %.pre63 = load i32, ptr %3, align 4, !tbaa !51
  br label %.critedge2

.critedge2:                                       ; preds = %.critedge2.loopexit, %.critedge
  %105 = phi i32 [ %63, %.critedge ], [ %.pre63, %.critedge2.loopexit ]
  %.2.lcssa = phi i32 [ %.0.lcssa, %.critedge ], [ %.2.lcssa.ph, %.critedge2.loopexit ]
  store i32 %105, ptr %2, align 8, !tbaa !56
  store i32 %.2.lcssa, ptr %3, align 4, !tbaa !51
  ret void
}